(irequestandresponse
RequestAndResponse
p0
(dp1
S'serverheader'
p2
(ispkproxy
header
p3
(dp4
S'sawCONNECT'
p5
I0
sS'useSSL'
p6
I0
sS'useRawArguments'
p7
I0
sS'firstline'
p8
S''
p9
sS'URL'
p10
g9
sS'headerValuesDict'
p11
(dp12
sS'goodHeader'
p13
I0
sS'sawsslinit'
p14
I0
sS'responseHeader'
p15
I0
sS'connectPort'
p16
I0
sS'wasChunked'
p17
I0
sS'done'
p18
I0
sS'connectHost'
p19
g9
sS'returncode'
p20
g9
sS'allURLargs'
p21
g9
sS'returnmessage'
p22
g9
sS'URLargsDict'
p23
(dp24
sS'data'
p25
(lp26
sS'clientisSSL'
p27
I0
sS'mybodysize'
p28
I0
sbsS'serverbody'
p29
(ispkproxy
body
p30
(dp31
g25
(lp32
sS'mysize'
p33
I0
sbsS'clientheader'
p34
(ispkproxy
header
p35
(dp36
g5
I0
sg6
I0
sg7
I0
sg8
g9
sg10
g9
sg11
(dp37
sg13
I0
sg14
I0
sg15
I0
sg16
I0
sg17
I0
sg18
I0
sg19
g9
sg20
g9
sg21
g9
sg22
g9
sg23
(dp38
sg25
(lp39
sg27
I0
sg28
I0
sbsS'clientbody'
p40
(ispkproxy
body
p41
(dp42
g25
(lp43
sg33
I0
sbsb.